; Function Attrs: mustprogress uwtable
define noundef i64 @_ZN8proxygen10HTTP2Codec23generateDefaultSettingsERN5folly10IOBufQueueE(ptr noundef nonnull align 8 dereferenceable(72) %writeBuf) local_unnamed_addr #3 align 2 personality ptr @__gxx_personality_v0 {
entry:
  %0 = load atomic i8, ptr @_ZGVZN8proxygen10HTTP2Codec23generateDefaultSettingsERN5folly10IOBufQueueEE12defaultCodec acquire, align 8
  %guard.uninitialized = icmp eq i8 %0, 0
  br i1 %guard.uninitialized, label %init.check, label %init.end, !prof !64

init.check:                                       ; preds = %entry
  %1 = tail call i32 @__cxa_guard_acquire(ptr nonnull @_ZGVZN8proxygen10HTTP2Codec23generateDefaultSettingsERN5folly10IOBufQueueEE12defaultCodec) #27
  %tobool.not = icmp eq i32 %1, 0
  br i1 %tobool.not, label %init.end, label %init

init:                                             ; preds = %init.check
  invoke void @_ZN8proxygen10HTTP2CodecC1ENS_18TransportDirectionE(ptr noundef nonnull align 8 dereferenceable(1062) @_ZZN8proxygen10HTTP2Codec23generateDefaultSettingsERN5folly10IOBufQueueEE12defaultCodec, i8 noundef zeroext 1)
          to label %invoke.cont unwind label %lpad

invoke.cont:                                      ; preds = %init
  %2 = tail call i32 @__cxa_atexit(ptr nonnull @_ZN8proxygen10HTTP2CodecD1Ev, ptr nonnull @_ZZN8proxygen10HTTP2Codec23generateDefaultSettingsERN5folly10IOBufQueueEE12defaultCodec, ptr nonnull @__dso_handle) #27
  tail call void @__cxa_guard_release(ptr nonnull @_ZGVZN8proxygen10HTTP2Codec23generateDefaultSettingsERN5folly10IOBufQueueEE12defaultCodec) #27
  br label %init.end

init.end:                                         ; preds = %invoke.cont, %init.check, %entry
  %call = tail call noundef i64 @_ZN8proxygen10HTTP2Codec16generateSettingsERN5folly10IOBufQueueE(ptr noundef nonnull align 8 dereferenceable(1062) @_ZZN8proxygen10HTTP2Codec23generateDefaultSettingsERN5folly10IOBufQueueEE12defaultCodec, ptr noundef nonnull align 8 dereferenceable(72) %writeBuf)
  ret i64 %call

lpad:                                             ; preds = %init
  %3 = landingpad { ptr, i32 }
          cleanup
  tail call void @__cxa_guard_abort(ptr nonnull @_ZGVZN8proxygen10HTTP2Codec23generateDefaultSettingsERN5folly10IOBufQueueEE12defaultCodec) #27
  resume { ptr, i32 } %3
}